(dp0
S'sac'
p1
(dp2
S'ts_pct'
p3
F0.6756756756756757
sS'efg_pct'
p4
F0.7105263157894737
sS'ft'
p5
F0.5
sS'ast'
p6
F0.6451612903225806
sS'stl'
p7
F0.5555555555555556
sS'win'
p8
F1.0
sS'orb'
p9
F0.36363636363636365
sS'trb'
p10
F0.5625
sS'tov'
p11
F0.45454545454545453
sS'fg3'
p12
F0.6666666666666666
sS'fta'
p13
F0.5128205128205128
sS'fg_pct'
p14
F0.6666666666666666
sS'fg3_pct'
p15
F0.5555555555555556
sS'blk'
p16
F0.37037037037037035
sS'fg'
p17
F0.75
sS'drb'
p18
F0.5853658536585366
sS'base_win_pct'
p19
F0.3902439024390244
sS'fga'
p20
F0.39473684210526316
ssS'por'
p21
(dp22
g3
F0.75
sg4
F0.6875
sg5
F0.6129032258064516
sg6
F0.6976744186046512
sg7
F0.7096774193548387
sg8
F1.0
sg9
F0.375
sg10
F0.5526315789473685
sg11
F0.6470588235294118
sg12
F0.5957446808510638
sg13
F0.6071428571428571
sg14
F0.7619047619047619
sg15
F0.6590909090909091
sg16
F0.6666666666666666
sg17
F0.7906976744186046
sg18
F0.6857142857142857
sg19
F0.47674418604651164
sg20
F0.42424242424242425
ssS'sas'
p23
(dp24
g3
F0.95
sg4
F0.9354838709677419
sg5
F0.7192982456140351
sg6
F0.896551724137931
sg7
F0.7777777777777778
sg8
F1.0
sg9
F0.66
sg10
F0.7457627118644068
sg11
F0.7924528301886793
sg12
F0.8461538461538461
sg13
F0.6785714285714286
sg14
F0.9047619047619048
sg15
F0.864406779661017
sg16
F0.7936507936507936
sg17
F0.8983050847457628
sg18
F0.847457627118644
sg19
F0.7040816326530612
sg20
F0.72
ssS'brk'
p25
(dp26
g3
F0.5135135135135135
sg4
F0.5588235294117647
sg5
F0.4146341463414634
sg6
F0.43333333333333335
sg7
F0.3684210526315789
sg8
F1.0
sg9
F0.20833333333333334
sg10
F0.5217391304347826
sg11
F0.2857142857142857
sg12
F0.3181818181818182
sg13
F0.325
sg14
F0.53125
sg15
F0.4411764705882353
sg16
F0.38461538461538464
sg17
F0.6470588235294118
sg18
F0.5483870967741935
sg19
F0.24390243902439024
sg20
F0.19047619047619047
ssS'ind'
p27
(dp28
g3
F0.8478260869565217
sg4
F0.8372093023255814
sg5
F0.631578947368421
sg6
F0.6904761904761905
sg7
F0.5789473684210527
sg8
F1.0
sg9
F0.4074074074074074
sg10
F0.6764705882352942
sg11
F0.5777777777777777
sg12
F0.6538461538461539
sg13
F0.5757575757575758
sg14
F0.7872340425531915
sg15
F0.6875
sg16
F0.5714285714285714
sg17
F0.7346938775510204
sg18
F0.8125
sg19
F0.4883720930232558
sg20
F0.4222222222222222
ssS'mil'
p29
(dp30
g3
F0.8478260869565217
sg4
F0.8636363636363636
sg5
F0.7647058823529411
sg6
F0.7142857142857143
sg7
F0.574468085106383
sg8
F1.0
sg9
F0.56
sg10
F0.6666666666666666
sg11
F0.5957446808510638
sg12
F0.8666666666666667
sg13
F0.6111111111111112
sg14
F0.782608695652174
sg15
F0.6458333333333334
sg16
F0.6444444444444445
sg17
F0.7446808510638298
sg18
F0.7073170731707317
sg19
F0.5
sg20
F0.5428571428571428
ssS'min'
p31
(dp32
g3
F0.7941176470588235
sg4
F0.8064516129032258
sg5
F0.5
sg6
F0.627906976744186
sg7
F0.5128205128205128
sg8
F1.0
sg9
F0.375
sg10
F0.4583333333333333
sg11
F0.43902439024390244
sg12
F0.7727272727272727
sg13
F0.48936170212765956
sg14
F0.6410256410256411
sg15
F0.625
sg16
F0.6551724137931034
sg17
F0.7575757575757576
sg18
F0.5853658536585366
sg19
F0.3780487804878049
sg20
F0.3695652173913043
ssS'mia'
p33
(dp34
g3
F0.8571428571428571
sg4
F0.7450980392156863
sg5
F0.5217391304347826
sg6
F0.6170212765957447
sg7
F0.5945945945945946
sg8
F1.0
sg9
F0.5333333333333333
sg10
F0.6341463414634146
sg11
F0.5365853658536586
sg12
F0.6086956521739131
sg13
F0.6206896551724138
sg14
F0.7619047619047619
sg15
F0.7333333333333333
sg16
F0.5319148936170213
sg17
F0.7674418604651163
sg18
F0.7575757575757576
sg19
F0.5
sg20
F0.5238095238095238
ssS'cle'
p35
(dp36
g3
F0.8507462686567164
sg4
F0.8115942028985508
sg5
F0.6785714285714286
sg6
F0.9722222222222222
sg7
F0.8571428571428571
sg8
F1.0
sg9
F0.6363636363636364
sg10
F0.7962962962962963
sg11
F0.8
sg12
F0.7777777777777778
sg13
F0.6515151515151515
sg14
F0.8571428571428571
sg15
F0.8448275862068966
sg16
F0.7291666666666666
sg17
F0.9069767441860465
sg18
F0.8448275862068966
sg19
F0.64
sg20
F0.6538461538461539
ssS'cho'
p37
(dp38
g3
F0.7631578947368421
sg4
F0.8064516129032258
sg5
F0.5161290322580645
sg6
F0.65625
sg7
F0.5813953488372093
sg8
F1.0
sg9
F0.4166666666666667
sg10
F0.59375
sg11
F0.5208333333333334
sg12
F0.6
sg13
F0.5254237288135594
sg14
F0.7575757575757576
sg15
F0.696969696969697
sg16
F0.5714285714285714
sg17
F0.8571428571428571
sg18
F0.6363636363636364
sg19
F0.43902439024390244
sg20
F0.42857142857142855
ssS'nyk'
p39
(dp40
g3
F0.7647058823529411
sg4
F0.75
sg5
F0.3793103448275862
sg6
F0.6363636363636364
sg7
F0.47368421052631576
sg8
F1.0
sg9
F0.37777777777777777
sg10
F0.5238095238095238
sg11
F0.38235294117647056
sg12
F0.6774193548387096
sg13
F0.3548387096774194
sg14
F0.6756756756756757
sg15
F0.6190476190476191
sg16
F0.45454545454545453
sg17
F0.6764705882352942
sg18
F0.6410256410256411
sg19
F0.3780487804878049
sg20
F0.3409090909090909
ssS'hou'
p41
(dp42
g3
F0.9310344827586207
sg4
F0.9285714285714286
sg5
F0.6909090909090909
sg6
F0.8571428571428571
sg7
F0.7368421052631579
sg8
F1.0
sg9
F0.6153846153846154
sg10
F0.8181818181818182
sg11
F0.6666666666666666
sg12
F0.7361111111111112
sg13
F0.7017543859649122
sg14
F0.9387755102040817
sg15
F0.9130434782608695
sg16
F0.7666666666666667
sg17
F0.972972972972973
sg18
F0.875
sg19
F0.6559139784946236
sg20
F0.6216216216216216
ssS'was'
p43
(dp44
g3
F0.9302325581395349
sg4
F0.9361702127659575
sg5
F0.6153846153846154
sg6
F0.8125
sg7
F0.66
sg8
F1.0
sg9
F0.5581395348837209
sg10
F0.6511627906976745
sg11
F0.6875
sg12
F0.8787878787878788
sg13
F0.5806451612903226
sg14
F0.88
sg15
F0.9302325581395349
sg16
F0.8
sg17
F0.7678571428571429
sg18
F0.7884615384615384
sg19
F0.5894736842105263
sg20
F0.509090909090909
ssS'lal'
p45
(dp46
g3
F0.7857142857142857
sg4
F0.75
sg5
F0.5172413793103449
sg6
F0.5333333333333333
sg7
F0.3611111111111111
sg8
F1.0
sg9
F0.4186046511627907
sg10
F0.4358974358974359
sg11
F0.38235294117647056
sg12
F0.53125
sg13
F0.46875
sg14
F0.72
sg15
F0.59375
sg16
F0.45454545454545453
sg17
F0.6060606060606061
sg18
F0.6333333333333333
sg19
F0.3170731707317073
sg20
F0.3111111111111111
ssS'phi'
p47
(dp48
g3
F0.6451612903225806
sg4
F0.5555555555555556
sg5
F0.48148148148148145
sg6
F0.5116279069767442
sg7
F0.41379310344827586
sg8
F1.0
sg9
F0.41379310344827586
sg10
F0.6206896551724138
sg11
F0.375
sg12
F0.41509433962264153
sg13
F0.42857142857142855
sg14
F0.5806451612903226
sg15
F0.525
sg16
F0.4857142857142857
sg17
F0.6428571428571429
sg18
F0.6
sg19
F0.34146341463414637
sg20
F0.38235294117647056
ssS'pho'
p49
(dp50
g3
F0.72
sg4
F0.6538461538461539
sg5
F0.42857142857142855
sg6
F0.4666666666666667
sg7
F0.2972972972972973
sg8
F1.0
sg9
F0.26666666666666666
sg10
F0.39473684210526316
sg11
F0.2972972972972973
sg12
F0.5
sg13
F0.3333333333333333
sg14
F0.5666666666666667
sg15
F0.4838709677419355
sg16
F0.41935483870967744
sg17
F0.45714285714285713
sg18
F0.53125
sg19
F0.2926829268292683
sg20
F0.22727272727272727
ssS'dal'
p51
(dp52
g3
F0.875
sg4
F0.8387096774193549
sg5
F0.6551724137931034
sg6
F0.6285714285714286
sg7
F0.5217391304347826
sg8
F1.0
sg9
F0.42424242424242425
sg10
F0.5555555555555556
sg11
F0.4262295081967213
sg12
F0.5111111111111111
sg13
F0.6296296296296297
sg14
F0.8666666666666667
sg15
F0.6176470588235294
sg16
F0.39473684210526316
sg17
F0.7666666666666667
sg18
F0.8666666666666667
sg19
F0.4024390243902439
sg20
F0.34615384615384615
ssS'lac'
p53
(dp54
g3
F0.94
sg4
F0.9056603773584906
sg5
F0.673469387755102
sg6
F0.8378378378378378
sg7
F0.7142857142857143
sg8
F1.0
sg9
F0.6666666666666666
sg10
F0.7555555555555555
sg11
F0.7073170731707317
sg12
F0.7708333333333334
sg13
F0.673469387755102
sg14
F0.8771929824561403
sg15
F0.7755102040816326
sg16
F0.7636363636363637
sg17
F0.8695652173913043
sg18
F0.8113207547169812
sg19
F0.6067415730337079
sg20
F0.5277777777777778
ssS'orl'
p55
(dp56
g3
F0.8620689655172413
sg4
F0.7419354838709677
sg5
F0.46875
sg6
F0.6666666666666666
sg7
F0.53125
sg8
F1.0
sg9
F0.3142857142857143
sg10
F0.48484848484848486
sg11
F0.45454545454545453
sg12
F0.5172413793103449
sg13
F0.4166666666666667
sg14
F0.7741935483870968
sg15
F0.5517241379310345
sg16
F0.48484848484848486
sg17
F0.7666666666666667
sg18
F0.6666666666666666
sg19
F0.35365853658536583
sg20
F0.3684210526315789
ssS'nop'
p57
(dp58
g3
F0.8108108108108109
sg4
F0.8055555555555556
sg5
F0.46511627906976744
sg6
F0.7333333333333333
sg7
F0.5952380952380952
sg8
F1.0
sg9
F0.52
sg10
F0.7619047619047619
sg11
F0.5
sg12
F0.6176470588235294
sg13
F0.5227272727272727
sg14
F0.8235294117647058
sg15
F0.6666666666666666
sg16
F0.52
sg17
F0.84
sg18
F0.7916666666666666
sg19
F0.4146341463414634
sg20
F0.45714285714285713
ssS'uta'
p59
(dp60
g3
F0.8571428571428571
sg4
F0.8653846153846154
sg5
F0.6956521739130435
sg6
F0.7222222222222222
sg7
F0.7142857142857143
sg8
F1.0
sg9
F0.5833333333333334
sg10
F0.7636363636363637
sg11
F0.6756756756756757
sg12
F0.7959183673469388
sg13
F0.6862745098039216
sg14
F0.8867924528301887
sg15
F0.7446808510638298
sg16
F0.7058823529411765
sg17
F0.9047619047619048
sg18
F0.8
sg19
F0.5913978494623656
sg20
F0.53125
ssS'gsw'
p61
(dp62
g3
F0.9390243902439024
sg4
F0.9493670886075949
sg5
F0.86
sg6
F0.9390243902439024
sg7
F0.8846153846153846
sg8
F1.0
sg9
F0.896551724137931
sg10
F0.96
sg11
F0.9361702127659575
sg12
F0.9444444444444444
sg13
F0.8478260869565217
sg14
F0.9156626506024096
sg15
F0.9571428571428572
sg16
F0.8356164383561644
sg17
F0.9726027397260274
sg18
F0.95
sg19
F0.8383838383838383
sg20
F0.9
ssS'atl'
p63
(dp64
g3
F0.8636363636363636
sg4
F0.925
sg5
F0.5192307692307693
sg6
F0.825
sg7
F0.6666666666666666
sg8
F1.0
sg9
F0.5681818181818182
sg10
F0.6458333333333334
sg11
F0.631578947368421
sg12
F0.8260869565217391
sg13
F0.4666666666666667
sg14
F0.9047619047619048
sg15
F0.875
sg16
F0.6060606060606061
sg17
F0.8648648648648649
sg18
F0.7391304347826086
sg19
F0.5113636363636364
sg20
F0.5806451612903226
ssS'bos'
p65
(dp66
g3
F0.9298245614035088
sg4
F0.896551724137931
sg5
F0.6097560975609756
sg6
F0.7076923076923077
sg7
F0.7073170731707317
sg8
F1.0
sg9
F0.59375
sg10
F0.8709677419354839
sg11
F0.625
sg12
F0.704225352112676
sg13
F0.6341463414634146
sg14
F0.9411764705882353
sg15
F0.8305084745762712
sg16
F0.8275862068965517
sg17
F0.8775510204081632
sg18
F0.9722222222222222
sg19
F0.62
sg20
F0.6170212765957447
ssS'det'
p67
(dp68
g3
F0.9333333333333333
sg4
F0.8529411764705882
sg5
F0.5555555555555556
sg6
F0.8333333333333334
sg7
F0.5853658536585366
sg8
F1.0
sg9
F0.46774193548387094
sg10
F0.58
sg11
F0.5227272727272727
sg12
F0.5925925925925926
sg13
F0.45714285714285713
sg14
F0.7435897435897436
sg15
F0.7105263157894737
sg16
F0.5161290322580645
sg17
F0.7142857142857143
sg18
F0.7222222222222222
sg19
F0.45121951219512196
sg20
F0.48333333333333334
ssS'okc'
p69
(dp70
g3
F0.9487179487179487
sg4
F0.8837209302325582
sg5
F0.6086956521739131
sg6
F0.8285714285714286
sg7
F0.6551724137931034
sg8
F1.0
sg9
F0.5
sg10
F0.625
sg11
F0.5714285714285714
sg12
F0.7142857142857143
sg13
F0.62
sg14
F0.9285714285714286
sg15
F0.7575757575757576
sg16
F0.6388888888888888
sg17
F0.7727272727272727
sg18
F0.8148148148148148
sg19
F0.5517241379310345
sg20
F0.5208333333333334
ssS'tor'
p71
(dp72
g3
F0.8653846153846154
sg4
F0.86
sg5
F0.7017543859649122
sg6
F0.75
sg7
F0.6153846153846154
sg8
F1.0
sg9
F0.5348837209302325
sg10
F0.7333333333333333
sg11
F0.6363636363636364
sg12
F0.8484848484848485
sg13
F0.6976744186046512
sg14
F0.8148148148148148
sg15
F0.8333333333333334
sg16
F0.7027027027027027
sg17
F0.8
sg18
F0.7755102040816326
sg19
F0.5978260869565217
sg20
F0.58
ssS'den'
p73
(dp74
g3
F0.8
sg4
F0.8
sg5
F0.6136363636363636
sg6
F0.6511627906976745
sg7
F0.64
sg8
F1.0
sg9
F0.43137254901960786
sg10
F0.559322033898305
sg11
F0.6111111111111112
sg12
F0.5476190476190477
sg13
F0.6136363636363636
sg14
F0.8292682926829268
sg15
F0.6744186046511628
sg16
F0.4666666666666667
sg17
F0.8
sg18
F0.6727272727272727
sg19
F0.4878048780487805
sg20
F0.3783783783783784
ssS'chi'
p75
(dp76
g3
F0.8
sg4
F0.8125
sg5
F0.5245901639344263
sg6
F0.8125
sg7
F0.5777777777777777
sg8
F1.0
sg9
F0.5
sg10
F0.603448275862069
sg11
F0.6190476190476191
sg12
F0.6666666666666666
sg13
F0.5245901639344263
sg14
F0.8181818181818182
sg15
F0.7
sg16
F0.5348837209302325
sg17
F0.8857142857142857
sg18
F0.7254901960784313
sg19
F0.48863636363636365
sg20
F0.5434782608695652
ssS'mem'
p77
(dp78
g3
F0.9230769230769231
sg4
F0.8809523809523809
sg5
F0.5555555555555556
sg6
F0.6666666666666666
sg7
F0.5294117647058824
sg8
F1.0
sg9
F0.46938775510204084
sg10
F0.6428571428571429
sg11
F0.52
sg12
F0.75
sg13
F0.625
sg14
F0.8571428571428571
sg15
F0.7441860465116279
sg16
F0.5357142857142857
sg17
F0.8571428571428571
sg18
F0.8157894736842105
sg19
F0.5113636363636364
sg20
F0.5166666666666667
ss.